#include <math.h>
#include <stdio.h>
#include <stdlib.h>
#include <string.h>

int main()
{
    struct score
    {
           int ID;
           int c;
           int m;
           };
           int n,k,t,r;
           int j;
           scanf("%d",&n);
           int sum[100000];
           struct score s[100000];
           for(int i=1;i<=n;i++)
           {
                        scanf("%d %d %d",&s[i].ID,&s[i].c,&s[i].m);
                        sum[i]=s[i].c+s[i].m;
                        }
                        for(j=1;j<=3;j++)
                        {
                                         for(k=j;k<=n;k++)
                                         {
                                                            if(sum[k]>sum[j])
                                                            {            t=sum[j];         
                                                                         sum[j]=sum[k];
                                                                         sum[k]=t;
                                                                         r=s[j].ID;
                                                                         s[j].ID=s[k].ID;
                                                                         s[k].ID=r;
                                                                         }
                                                                         }
                                                                         }
                                                                         for(int u=1;u<=3;u++)
                                                                         {
                                                                                 printf("%d %d\n",s[u].ID,sum[u]);
                                                                                 }
                                                                                 getchar();
                                                                                 getchar();
                                                                                 }