; ModuleID = '14/189.c'
source_filename = "14/189.c"
target datalayout = "e-m:e-p270:32:32-p271:32:32-p272:64:64-i64:64-f80:128-n8:16:32:64-S128"
target triple = "x86_64-pc-linux-gnu"

%struct.score = type { i32, i32, i32 }

@.str = private unnamed_addr constant [3 x i8] c"%d\00", align 1
@.str.1 = private unnamed_addr constant [9 x i8] c"%d %d %d\00", align 1
@.str.2 = private unnamed_addr constant [7 x i8] c"%d %d\0A\00", align 1

; Function Attrs: noinline nounwind uwtable
define dso_local i32 @main() #0 {
  %1 = alloca i32, align 4
  %2 = alloca i32, align 4
  %3 = alloca i32, align 4
  %4 = alloca i32, align 4
  %5 = alloca i32, align 4
  %6 = alloca i32, align 4
  %7 = alloca [100000 x i32], align 16
  %8 = alloca [100000 x %struct.score], align 16
  %9 = alloca i32, align 4
  %10 = alloca i32, align 4
  store i32 0, i32* %1, align 4
  %11 = call i32 (i8*, ...) @__isoc99_scanf(i8* getelementptr inbounds ([3 x i8], [3 x i8]* @.str, i64 0, i64 0), i32* %2)
  store i32 1, i32* %9, align 4
  br label %12

12:                                               ; preds = %44, %0
  %13 = load i32, i32* %9, align 4
  %14 = load i32, i32* %2, align 4
  %15 = icmp sle i32 %13, %14
  br i1 %15, label %16, label %47

16:                                               ; preds = %12
  %17 = load i32, i32* %9, align 4
  %18 = sext i32 %17 to i64
  %19 = getelementptr inbounds [100000 x %struct.score], [100000 x %struct.score]* %8, i64 0, i64 %18
  %20 = getelementptr inbounds %struct.score, %struct.score* %19, i32 0, i32 0
  %21 = load i32, i32* %9, align 4
  %22 = sext i32 %21 to i64
  %23 = getelementptr inbounds [100000 x %struct.score], [100000 x %struct.score]* %8, i64 0, i64 %22
  %24 = getelementptr inbounds %struct.score, %struct.score* %23, i32 0, i32 1
  %25 = load i32, i32* %9, align 4
  %26 = sext i32 %25 to i64
  %27 = getelementptr inbounds [100000 x %struct.score], [100000 x %struct.score]* %8, i64 0, i64 %26
  %28 = getelementptr inbounds %struct.score, %struct.score* %27, i32 0, i32 2
  %29 = call i32 (i8*, ...) @__isoc99_scanf(i8* getelementptr inbounds ([9 x i8], [9 x i8]* @.str.1, i64 0, i64 0), i32* %20, i32* %24, i32* %28)
  %30 = load i32, i32* %9, align 4
  %31 = sext i32 %30 to i64
  %32 = getelementptr inbounds [100000 x %struct.score], [100000 x %struct.score]* %8, i64 0, i64 %31
  %33 = getelementptr inbounds %struct.score, %struct.score* %32, i32 0, i32 1
  %34 = load i32, i32* %33, align 4
  %35 = load i32, i32* %9, align 4
  %36 = sext i32 %35 to i64
  %37 = getelementptr inbounds [100000 x %struct.score], [100000 x %struct.score]* %8, i64 0, i64 %36
  %38 = getelementptr inbounds %struct.score, %struct.score* %37, i32 0, i32 2
  %39 = load i32, i32* %38, align 4
  %40 = add nsw i32 %34, %39
  %41 = load i32, i32* %9, align 4
  %42 = sext i32 %41 to i64
  %43 = getelementptr inbounds [100000 x i32], [100000 x i32]* %7, i64 0, i64 %42
  store i32 %40, i32* %43, align 4
  br label %44

44:                                               ; preds = %16
  %45 = load i32, i32* %9, align 4
  %46 = add nsw i32 %45, 1
  store i32 %46, i32* %9, align 4
  br label %12

47:                                               ; preds = %12
  store i32 1, i32* %6, align 4
  br label %48

48:                                               ; preds = %107, %47
  %49 = load i32, i32* %6, align 4
  %50 = icmp sle i32 %49, 3
  br i1 %50, label %51, label %110

51:                                               ; preds = %48
  %52 = load i32, i32* %6, align 4
  store i32 %52, i32* %3, align 4
  br label %53

53:                                               ; preds = %103, %51
  %54 = load i32, i32* %3, align 4
  %55 = load i32, i32* %2, align 4
  %56 = icmp sle i32 %54, %55
  br i1 %56, label %57, label %106

57:                                               ; preds = %53
  %58 = load i32, i32* %3, align 4
  %59 = sext i32 %58 to i64
  %60 = getelementptr inbounds [100000 x i32], [100000 x i32]* %7, i64 0, i64 %59
  %61 = load i32, i32* %60, align 4
  %62 = load i32, i32* %6, align 4
  %63 = sext i32 %62 to i64
  %64 = getelementptr inbounds [100000 x i32], [100000 x i32]* %7, i64 0, i64 %63
  %65 = load i32, i32* %64, align 4
  %66 = icmp sgt i32 %61, %65
  br i1 %66, label %67, label %102

67:                                               ; preds = %57
  %68 = load i32, i32* %6, align 4
  %69 = sext i32 %68 to i64
  %70 = getelementptr inbounds [100000 x i32], [100000 x i32]* %7, i64 0, i64 %69
  %71 = load i32, i32* %70, align 4
  store i32 %71, i32* %4, align 4
  %72 = load i32, i32* %3, align 4
  %73 = sext i32 %72 to i64
  %74 = getelementptr inbounds [100000 x i32], [100000 x i32]* %7, i64 0, i64 %73
  %75 = load i32, i32* %74, align 4
  %76 = load i32, i32* %6, align 4
  %77 = sext i32 %76 to i64
  %78 = getelementptr inbounds [100000 x i32], [100000 x i32]* %7, i64 0, i64 %77
  store i32 %75, i32* %78, align 4
  %79 = load i32, i32* %4, align 4
  %80 = load i32, i32* %3, align 4
  %81 = sext i32 %80 to i64
  %82 = getelementptr inbounds [100000 x i32], [100000 x i32]* %7, i64 0, i64 %81
  store i32 %79, i32* %82, align 4
  %83 = load i32, i32* %6, align 4
  %84 = sext i32 %83 to i64
  %85 = getelementptr inbounds [100000 x %struct.score], [100000 x %struct.score]* %8, i64 0, i64 %84
  %86 = getelementptr inbounds %struct.score, %struct.score* %85, i32 0, i32 0
  %87 = load i32, i32* %86, align 4
  store i32 %87, i32* %5, align 4
  %88 = load i32, i32* %3, align 4
  %89 = sext i32 %88 to i64
  %90 = getelementptr inbounds [100000 x %struct.score], [100000 x %struct.score]* %8, i64 0, i64 %89
  %91 = getelementptr inbounds %struct.score, %struct.score* %90, i32 0, i32 0
  %92 = load i32, i32* %91, align 4
  %93 = load i32, i32* %6, align 4
  %94 = sext i32 %93 to i64
  %95 = getelementptr inbounds [100000 x %struct.score], [100000 x %struct.score]* %8, i64 0, i64 %94
  %96 = getelementptr inbounds %struct.score, %struct.score* %95, i32 0, i32 0
  store i32 %92, i32* %96, align 4
  %97 = load i32, i32* %5, align 4
  %98 = load i32, i32* %3, align 4
  %99 = sext i32 %98 to i64
  %100 = getelementptr inbounds [100000 x %struct.score], [100000 x %struct.score]* %8, i64 0, i64 %99
  %101 = getelementptr inbounds %struct.score, %struct.score* %100, i32 0, i32 0
  store i32 %97, i32* %101, align 4
  br label %102

102:                                              ; preds = %67, %57
  br label %103

103:                                              ; preds = %102
  %104 = load i32, i32* %3, align 4
  %105 = add nsw i32 %104, 1
  store i32 %105, i32* %3, align 4
  br label %53

106:                                              ; preds = %53
  br label %107

107:                                              ; preds = %106
  %108 = load i32, i32* %6, align 4
  %109 = add nsw i32 %108, 1
  store i32 %109, i32* %6, align 4
  br label %48

110:                                              ; preds = %48
  store i32 1, i32* %10, align 4
  br label %111

111:                                              ; preds = %125, %110
  %112 = load i32, i32* %10, align 4
  %113 = icmp sle i32 %112, 3
  br i1 %113, label %114, label %128

114:                                              ; preds = %111
  %115 = load i32, i32* %10, align 4
  %116 = sext i32 %115 to i64
  %117 = getelementptr inbounds [100000 x %struct.score], [100000 x %struct.score]* %8, i64 0, i64 %116
  %118 = getelementptr inbounds %struct.score, %struct.score* %117, i32 0, i32 0
  %119 = load i32, i32* %118, align 4
  %120 = load i32, i32* %10, align 4
  %121 = sext i32 %120 to i64
  %122 = getelementptr inbounds [100000 x i32], [100000 x i32]* %7, i64 0, i64 %121
  %123 = load i32, i32* %122, align 4
  %124 = call i32 (i8*, ...) @printf(i8* getelementptr inbounds ([7 x i8], [7 x i8]* @.str.2, i64 0, i64 0), i32 %119, i32 %123)
  br label %125

125:                                              ; preds = %114
  %126 = load i32, i32* %10, align 4
  %127 = add nsw i32 %126, 1
  store i32 %127, i32* %10, align 4
  br label %111

128:                                              ; preds = %111
  %129 = call i32 @getchar()
  %130 = call i32 @getchar()
  %131 = load i32, i32* %1, align 4
  ret i32 %131
}

declare dso_local i32 @__isoc99_scanf(i8*, ...) #1

declare dso_local i32 @printf(i8*, ...) #1

declare dso_local i32 @getchar() #1


!llvm.module.flags = !{!0}
!llvm.ident = !{!1}

!0 = !{i32 1, !"wchar_size", i32 4}
!1 = !{!"clang version 10.0.0-4ubuntu1 "}
